; Function Attrs: nounwind sspstrong uwtable
define internal void @parallels_close(ptr noundef readonly captures(none) %bs) #0 {
entry:
  %opaque = getelementptr inbounds nuw i8, ptr %bs, i64 24
  %0 = load ptr, ptr %opaque, align 8
  tail call void @bdrv_graph_rdlock_main_loop() #16
  %1 = load i32, ptr %bs, align 8
  %2 = and i32 %1, 2050
  %or.cond = icmp eq i32 %2, 2
  br i1 %or.cond, label %if.then, label %glib_autoptr_cleanup_GraphLockableMainloop.exit

if.then:                                          ; preds = %entry
  %header = getelementptr inbounds nuw i8, ptr %0, i64 48
  %3 = load ptr, ptr %header, align 8
  %inuse = getelementptr inbounds nuw i8, ptr %3, i64 44
  store i32 0, ptr %inuse, align 1
  %4 = load ptr, ptr %opaque, align 8
  %file.i = getelementptr inbounds nuw i8, ptr %bs, i64 16840
  %5 = load ptr, ptr %file.i, align 8
  %6 = load ptr, ptr %5, align 8
  %call.i = tail call i64 @bdrv_opt_mem_align(ptr noundef %6) #16
  %cond.i = tail call i64 @llvm.umax.i64(i64 %call.i, i64 64)
  %conv.i = trunc i64 %cond.i to i32
  %header_size.i = getelementptr inbounds nuw i8, ptr %4, i64 56
  %7 = load i32, ptr %header_size.i, align 8
  %spec.select.i = tail call i32 @llvm.umin.i32(i32 %7, i32 %conv.i)
  %8 = load ptr, ptr %file.i, align 8
  %conv6.i = zext i32 %spec.select.i to i64
  %header.i = getelementptr inbounds nuw i8, ptr %4, i64 48
  %9 = load ptr, ptr %header.i, align 8
  %call7.i = tail call i32 @bdrv_pwrite_sync(ptr noundef %8, i64 noundef 0, i64 noundef %conv6.i, ptr noundef %9, i32 noundef 0) #16
  %10 = load ptr, ptr %file.i, align 8
  %data_end = getelementptr inbounds nuw i8, ptr %0, i64 120
  %11 = load i64, ptr %data_end, align 8
  %shl = shl i64 %11, 9
  %call5 = tail call i32 @bdrv_truncate(ptr noundef %10, i64 noundef %shl, i1 noundef zeroext true, i32 noundef 0, i32 noundef 0, ptr noundef null) #16
  br label %glib_autoptr_cleanup_GraphLockableMainloop.exit

glib_autoptr_cleanup_GraphLockableMainloop.exit:  ; preds = %if.then, %entry
  %bs.val = load ptr, ptr %opaque, align 8
  %used_bmap_size.i = getelementptr inbounds nuw i8, ptr %bs.val, i64 88
  store i64 0, ptr %used_bmap_size.i, align 8
  %used_bmap.i = getelementptr inbounds nuw i8, ptr %bs.val, i64 80
  %12 = load ptr, ptr %used_bmap.i, align 8
  tail call void @g_free(ptr noundef %12) #16
  %bat_dirty_bmap = getelementptr inbounds nuw i8, ptr %0, i64 64
  %13 = load ptr, ptr %bat_dirty_bmap, align 8
  tail call void @g_free(ptr noundef %13) #16
  %header6 = getelementptr inbounds nuw i8, ptr %0, i64 48
  %14 = load ptr, ptr %header6, align 8
  tail call void @qemu_vfree(ptr noundef %14) #16
  %migration_blocker = getelementptr inbounds nuw i8, ptr %0, i64 152
  tail call void @migrate_del_blocker(ptr noundef nonnull %migration_blocker) #16
  tail call void @bdrv_graph_rdunlock_main_loop() #16
  ret void
}